; Function Attrs: mustprogress nounwind uwtable
define hidden noundef ptr @_ZN10InlineTree15check_can_parseEP8ciMethod(ptr noundef %0) local_unnamed_addr #0 align 2 {
  %2 = getelementptr inbounds i8, ptr %0, i64 24
  %.sroa.0.0.copyload.i.i = load i64, ptr %2, align 8
  %3 = and i64 %.sroa.0.0.copyload.i.i, 256
  %.not = icmp eq i64 %3, 0
  br i1 %.not, label %4, label %22

4:                                                ; preds = %1
  %5 = and i64 %.sroa.0.0.copyload.i.i, 1024
  %.not7 = icmp eq i64 %5, 0
  br i1 %.not7, label %6, label %22

6:                                                ; preds = %4
  %7 = tail call noundef zeroext i1 @_ZN8ciMethod21has_balanced_monitorsEv(ptr noundef nonnull align 8 dereferenceable(160) %0) #10
  br i1 %7, label %8, label %22

8:                                                ; preds = %6
  %9 = tail call noundef ptr @_ZN8ciMethod17get_flow_analysisEv(ptr noundef nonnull align 8 dereferenceable(160) %0) #10
  %10 = load ptr, ptr %9, align 8
  %11 = getelementptr inbounds i8, ptr %10, i64 88
  %12 = load ptr, ptr %11, align 8
  %13 = icmp ne ptr %12, null
  %14 = getelementptr inbounds i8, ptr %9, i64 24
  %15 = load ptr, ptr %14, align 8
  %16 = icmp ne ptr %15, null
  %17 = select i1 %13, i1 true, i1 %16
  br i1 %17, label %22, label %18

18:                                               ; preds = %8
  %19 = getelementptr inbounds i8, ptr %0, i64 112
  %20 = load i8, ptr %19, align 8
  %21 = trunc i8 %20 to i1
  %..str.35 = select i1 %21, ptr null, ptr @.str.35
  br label %22

22:                                               ; preds = %18, %8, %6, %4, %1
  %.0 = phi ptr [ @.str.15, %1 ], [ @.str.13, %4 ], [ @.str.33, %6 ], [ @.str.34, %8 ], [ %..str.35, %18 ]
  ret ptr %.0
}